target datalayout = "e-m:e-p270:32:32-p271:32:32-p272:64:64-i64:64-i128:128-f80:128-n8:16:32:64-S128"
target triple = "x86_64-pc-linux-gnu"

%struct._zend_array = type { %struct._zend_refcounted_h, %union.anon.4, i32, %union.anon.6, i32, i32, i32, i32, i64, ptr }
%struct._zend_refcounted_h = type { i32, %union.anon.3 }
%union.anon.3 = type { i32 }
%union.anon.4 = type { i32 }
%union.anon.6 = type { ptr }
%struct._zend_string = type { %struct._zend_refcounted_h, i64, i64, [1 x i8] }
%struct._zend_class_entry = type { i8, ptr, %union.anon.7, i32, i32, i32, i32, ptr, ptr, ptr, %struct._zend_array, %struct._zend_array, %struct._zend_array, ptr, ptr, ptr, ptr, ptr, ptr, ptr, ptr, ptr, ptr, ptr, ptr, ptr, ptr, ptr, ptr, ptr, ptr, ptr, %union.anon.8, ptr, ptr, ptr, ptr, i32, i32, %union.anon.9, ptr, ptr, ptr, ptr, i32, ptr, ptr, %union.anon.10 }
%union.anon.7 = type { ptr }
%union.anon.8 = type { ptr }
%union.anon.9 = type { ptr }
%union.anon.10 = type { %struct.anon.11 }
%struct.anon.11 = type { ptr, i32, i32 }

@.str.25 = private unnamed_addr constant [48 x i8] c"Cannot apply #[AllowDynamicProperties] to trait\00", align 1
@.str.26 = private unnamed_addr constant [52 x i8] c"Cannot apply #[AllowDynamicProperties] to interface\00", align 1
@.str.27 = private unnamed_addr constant [60 x i8] c"Cannot apply #[AllowDynamicProperties] to readonly class %s\00", align 1

; Function Attrs: nounwind uwtable
define internal void @validate_allow_dynamic_properties(ptr noundef %0, i32 noundef %1, ptr noundef %2) #0 {
  %4 = alloca ptr, align 8
  %5 = alloca i32, align 4
  %6 = alloca ptr, align 8
  store ptr %0, ptr %4, align 8
  store i32 %1, ptr %5, align 4
  store ptr %2, ptr %6, align 8
  %7 = load ptr, ptr %6, align 8
  %8 = getelementptr inbounds %struct._zend_class_entry, ptr %7, i32 0, i32 4
  %9 = load i32, ptr %8, align 4
  %10 = and i32 %9, 2
  %11 = icmp ne i32 %10, 0
  br i1 %11, label %12, label %13

12:                                               ; preds = %3
  call void (i32, ptr, ...) @zend_error_noreturn(i32 noundef 1, ptr noundef @.str.25) #11
  unreachable

13:                                               ; preds = %3
  %14 = load ptr, ptr %6, align 8
  %15 = getelementptr inbounds %struct._zend_class_entry, ptr %14, i32 0, i32 4
  %16 = load i32, ptr %15, align 4
  %17 = and i32 %16, 1
  %18 = icmp ne i32 %17, 0
  br i1 %18, label %19, label %20

19:                                               ; preds = %13
  call void (i32, ptr, ...) @zend_error_noreturn(i32 noundef 1, ptr noundef @.str.26) #11
  unreachable

20:                                               ; preds = %13
  %21 = load ptr, ptr %6, align 8
  %22 = getelementptr inbounds %struct._zend_class_entry, ptr %21, i32 0, i32 4
  %23 = load i32, ptr %22, align 4
  %24 = and i32 %23, 65536
  %25 = icmp ne i32 %24, 0
  br i1 %25, label %26, label %32

26:                                               ; preds = %20
  %27 = load ptr, ptr %6, align 8
  %28 = getelementptr inbounds %struct._zend_class_entry, ptr %27, i32 0, i32 1
  %29 = load ptr, ptr %28, align 8
  %30 = getelementptr inbounds %struct._zend_string, ptr %29, i32 0, i32 3
  %31 = getelementptr inbounds [1 x i8], ptr %30, i64 0, i64 0
  call void (i32, ptr, ...) @zend_error_noreturn(i32 noundef 1, ptr noundef @.str.27, ptr noundef %31) #11
  unreachable

32:                                               ; preds = %20
  %33 = load ptr, ptr %6, align 8
  %34 = getelementptr inbounds %struct._zend_class_entry, ptr %33, i32 0, i32 4
  %35 = load i32, ptr %34, align 4
  %36 = or i32 %35, 32768
  store i32 %36, ptr %34, align 4
  ret void
}