; Function Attrs: nounwind uwtable
define internal void @validate_allow_dynamic_properties(ptr nocapture readnone %0, i32 %1, ptr nocapture noundef %2) #0 {
  %4 = getelementptr inbounds i8, ptr %2, i64 28
  %5 = load i32, ptr %4, align 4
  %6 = and i32 %5, 2
  %.not = icmp eq i32 %6, 0
  br i1 %.not, label %8, label %7

7:                                                ; preds = %3
  tail call void (i32, ptr, ...) @zend_error_noreturn(i32 noundef 1, ptr noundef nonnull @.str.25) #17
  unreachable

8:                                                ; preds = %3
  %9 = and i32 %5, 1
  %.not5 = icmp eq i32 %9, 0
  br i1 %.not5, label %11, label %10

10:                                               ; preds = %8
  tail call void (i32, ptr, ...) @zend_error_noreturn(i32 noundef 1, ptr noundef nonnull @.str.26) #17
  unreachable

11:                                               ; preds = %8
  %12 = and i32 %5, 65536
  %.not6 = icmp eq i32 %12, 0
  br i1 %.not6, label %17, label %13

13:                                               ; preds = %11
  %14 = getelementptr inbounds i8, ptr %2, i64 8
  %15 = load ptr, ptr %14, align 8
  %16 = getelementptr inbounds i8, ptr %15, i64 24
  tail call void (i32, ptr, ...) @zend_error_noreturn(i32 noundef 1, ptr noundef nonnull @.str.27, ptr noundef nonnull %16) #17
  unreachable

17:                                               ; preds = %11
  %18 = or i32 %5, 32768
  store i32 %18, ptr %4, align 4
  ret void
}